target datalayout = "e-m:e-p270:32:32-p271:32:32-p272:64:64-i64:64-i128:128-f80:128-n8:16:32:64-S128"
target triple = "x86_64-pc-linux-gnu"

; Function Attrs: nounwind uwtable
define void @QuESTAssert(i32 noundef %0, i32 noundef %1, ptr noundef %2) #0 {
  %4 = alloca i32, align 4
  %5 = alloca i32, align 4
  %6 = alloca ptr, align 8
  store i32 %0, ptr %4, align 4, !tbaa !9
  store i32 %1, ptr %5, align 4, !tbaa !9
  store ptr %2, ptr %6, align 8, !tbaa !4
  %7 = load i32, ptr %4, align 4, !tbaa !9
  %8 = icmp ne i32 %7, 0
  br i1 %8, label %15, label %9

9:                                                ; preds = %3
  %10 = load i32, ptr %5, align 4, !tbaa !9
  %11 = zext i32 %10 to i64
  %12 = getelementptr inbounds nuw [92 x ptr], ptr @errorMessages, i64 0, i64 %11
  %13 = load ptr, ptr %12, align 8, !tbaa !4
  %14 = load ptr, ptr %6, align 8, !tbaa !4
  call void @invalidQuESTInputError(ptr noundef %13, ptr noundef %14)
  br label %15

15:                                               ; preds = %9, %3
  ret void
}

; Function Attrs: nounwind uwtable
define void @validatePhaseFuncOverrides(i32 noundef %0, i32 noundef %1, ptr noundef %2, i32 noundef %3, ptr noundef %4) #0 {
  %6 = alloca i32, align 4
  %7 = alloca i32, align 4
  %8 = alloca ptr, align 8
  %9 = alloca i32, align 4
  %10 = alloca ptr, align 8
  %11 = alloca i64, align 8
  %12 = alloca i64, align 8
  %13 = alloca i32, align 4
  %14 = alloca i32, align 4
  %15 = alloca i32, align 4
  store i32 %0, ptr %6, align 4, !tbaa !9
  store i32 %1, ptr %7, align 4, !tbaa !9
  store ptr %2, ptr %8, align 8, !tbaa !57
  store i32 %3, ptr %9, align 4, !tbaa !9
  store ptr %4, ptr %10, align 8, !tbaa !4
  %16 = load i32, ptr %9, align 4, !tbaa !9
  %17 = icmp sge i32 %16, 0
  %18 = zext i1 %17 to i32
  %19 = load ptr, ptr %10, align 8, !tbaa !4
  call void @QuESTAssert(i32 noundef %18, i32 noundef 72, ptr noundef %19)
  %20 = load i32, ptr %9, align 4, !tbaa !9
  %21 = load i32, ptr %6, align 4, !tbaa !9
  %22 = shl i32 1, %21
  %23 = icmp sle i32 %20, %22
  %24 = zext i1 %23 to i32
  %25 = load ptr, ptr %10, align 8, !tbaa !4
  call void @QuESTAssert(i32 noundef %24, i32 noundef 72, ptr noundef %25)
  call void @llvm.lifetime.start.p0(i64 8, ptr %11) #7
  call void @llvm.lifetime.start.p0(i64 8, ptr %12) #7
  %26 = load i32, ptr %7, align 4, !tbaa !9
  %27 = icmp eq i32 %26, 0
  br i1 %27, label %28, label %62

28:                                               ; preds = %5
  store i64 0, ptr %12, align 8, !tbaa !32
  %29 = load i32, ptr %6, align 4, !tbaa !9
  %30 = zext i32 %29 to i64
  %31 = shl i64 1, %30
  %32 = sub nsw i64 %31, 1
  store i64 %32, ptr %11, align 8, !tbaa !32
  call void @llvm.lifetime.start.p0(i64 4, ptr %13) #7
  store i32 0, ptr %13, align 4, !tbaa !9
  br label %33

33:                                               ; preds = %58, %28
  %34 = load i32, ptr %13, align 4, !tbaa !9
  %35 = load i32, ptr %9, align 4, !tbaa !9
  %36 = icmp slt i32 %34, %35
  br i1 %36, label %38, label %37

37:                                               ; preds = %33
  call void @llvm.lifetime.end.p0(i64 4, ptr %13) #7
  br label %61

38:                                               ; preds = %33
  %39 = load ptr, ptr %8, align 8, !tbaa !57
  %40 = load i32, ptr %13, align 4, !tbaa !9
  %41 = sext i32 %40 to i64
  %42 = getelementptr inbounds i64, ptr %39, i64 %41
  %43 = load i64, ptr %42, align 8, !tbaa !32
  %44 = load i64, ptr %12, align 8, !tbaa !32
  %45 = icmp sge i64 %43, %44
  br i1 %45, label %46, label %54

46:                                               ; preds = %38
  %47 = load ptr, ptr %8, align 8, !tbaa !57
  %48 = load i32, ptr %13, align 4, !tbaa !9
  %49 = sext i32 %48 to i64
  %50 = getelementptr inbounds i64, ptr %47, i64 %49
  %51 = load i64, ptr %50, align 8, !tbaa !32
  %52 = load i64, ptr %11, align 8, !tbaa !32
  %53 = icmp sle i64 %51, %52
  br label %54

54:                                               ; preds = %46, %38
  %55 = phi i1 [ false, %38 ], [ %53, %46 ]
  %56 = zext i1 %55 to i32
  %57 = load ptr, ptr %10, align 8, !tbaa !4
  call void @QuESTAssert(i32 noundef %56, i32 noundef 73, ptr noundef %57)
  br label %58

58:                                               ; preds = %54
  %59 = load i32, ptr %13, align 4, !tbaa !9
  %60 = add nsw i32 %59, 1
  store i32 %60, ptr %13, align 4, !tbaa !9
  br label %33

61:                                               ; preds = %37
  br label %62

62:                                               ; preds = %61, %5
  %63 = load i32, ptr %7, align 4, !tbaa !9
  %64 = icmp eq i32 %63, 1
  br i1 %64, label %65, label %105

65:                                               ; preds = %62
  call void @llvm.lifetime.start.p0(i64 4, ptr %14) #7
  %66 = load i32, ptr %6, align 4, !tbaa !9
  %67 = sub nsw i32 %66, 1
  store i32 %67, ptr %14, align 4, !tbaa !9
  %68 = load i32, ptr %14, align 4, !tbaa !9
  %69 = zext i32 %68 to i64
  %70 = shl i64 1, %69
  %71 = sub nsw i64 0, %70
  store i64 %71, ptr %12, align 8, !tbaa !32
  %72 = load i32, ptr %14, align 4, !tbaa !9
  %73 = zext i32 %72 to i64
  %74 = shl i64 1, %73
  %75 = sub nsw i64 %74, 1
  store i64 %75, ptr %11, align 8, !tbaa !32
  call void @llvm.lifetime.start.p0(i64 4, ptr %15) #7
  store i32 0, ptr %15, align 4, !tbaa !9
  br label %76

76:                                               ; preds = %101, %65
  %77 = load i32, ptr %15, align 4, !tbaa !9
  %78 = load i32, ptr %9, align 4, !tbaa !9
  %79 = icmp slt i32 %77, %78
  br i1 %79, label %81, label %80

80:                                               ; preds = %76
  call void @llvm.lifetime.end.p0(i64 4, ptr %15) #7
  br label %104

81:                                               ; preds = %76
  %82 = load ptr, ptr %8, align 8, !tbaa !57
  %83 = load i32, ptr %15, align 4, !tbaa !9
  %84 = sext i32 %83 to i64
  %85 = getelementptr inbounds i64, ptr %82, i64 %84
  %86 = load i64, ptr %85, align 8, !tbaa !32
  %87 = load i64, ptr %12, align 8, !tbaa !32
  %88 = icmp sge i64 %86, %87
  br i1 %88, label %89, label %97

89:                                               ; preds = %81
  %90 = load ptr, ptr %8, align 8, !tbaa !57
  %91 = load i32, ptr %15, align 4, !tbaa !9
  %92 = sext i32 %91 to i64
  %93 = getelementptr inbounds i64, ptr %90, i64 %92
  %94 = load i64, ptr %93, align 8, !tbaa !32
  %95 = load i64, ptr %11, align 8, !tbaa !32
  %96 = icmp sle i64 %94, %95
  br label %97

97:                                               ; preds = %89, %81
  %98 = phi i1 [ false, %81 ], [ %96, %89 ]
  %99 = zext i1 %98 to i32
  %100 = load ptr, ptr %10, align 8, !tbaa !4
  call void @QuESTAssert(i32 noundef %99, i32 noundef 74, ptr noundef %100)
  br label %101

101:                                              ; preds = %97
  %102 = load i32, ptr %15, align 4, !tbaa !9
  %103 = add nsw i32 %102, 1
  store i32 %103, ptr %15, align 4, !tbaa !9
  br label %76

104:                                              ; preds = %80
  call void @llvm.lifetime.end.p0(i64 4, ptr %14) #7
  br label %105

105:                                              ; preds = %104, %62
  call void @llvm.lifetime.end.p0(i64 8, ptr %12) #7
  call void @llvm.lifetime.end.p0(i64 8, ptr %11) #7
  ret void
}