; Function Attrs: nounwind uwtable
define void @validatePhaseFuncOverrides(i32 noundef %0, i32 noundef %1, ptr noundef readonly captures(none) %2, i32 noundef %3, ptr noundef %4) local_unnamed_addr #3 {
  %6 = icmp slt i32 %3, 0
  br i1 %6, label %7, label %QuESTAssert.exit

7:                                                ; preds = %5
  tail call void @invalidQuESTInputError(ptr noundef nonnull @.str.74, ptr noundef %4)
  br label %QuESTAssert.exit

QuESTAssert.exit:                                 ; preds = %5, %7
  %8 = shl nuw i32 1, %0
  %.not39 = icmp sgt i32 %3, %8
  br i1 %.not39, label %9, label %QuESTAssert.exit34

9:                                                ; preds = %QuESTAssert.exit
  tail call void @invalidQuESTInputError(ptr noundef nonnull @.str.74, ptr noundef %4)
  br label %QuESTAssert.exit34

QuESTAssert.exit34:                               ; preds = %QuESTAssert.exit, %9
  switch i32 %1, label %._crit_edge [
    i32 0, label %10
    i32 1, label %19
  ]

10:                                               ; preds = %QuESTAssert.exit34
  %11 = zext nneg i32 %0 to i64
  %notmask = shl nsw i64 -1, %11
  %12 = xor i64 %notmask, -1
  %13 = icmp sgt i32 %3, 0
  br i1 %13, label %.lr.ph.preheader, label %._crit_edge

.lr.ph.preheader:                                 ; preds = %10
  %wide.trip.count53 = zext nneg i32 %3 to i64
  br label %.lr.ph

.lr.ph:                                           ; preds = %.lr.ph.preheader, %QuESTAssert.exit36
  %indvars.iv50 = phi i64 [ 0, %.lr.ph.preheader ], [ %indvars.iv.next51, %QuESTAssert.exit36 ]
  %14 = getelementptr inbounds nuw i64, ptr %2, i64 %indvars.iv50
  %15 = load i64, ptr %14, align 8, !tbaa !38
  %16 = icmp slt i64 %15, 0
  %17 = icmp sgt i64 %15, %12
  %narrow.not43 = select i1 %16, i1 true, i1 %17
  br i1 %narrow.not43, label %18, label %QuESTAssert.exit36

18:                                               ; preds = %.lr.ph
  tail call void @invalidQuESTInputError(ptr noundef nonnull @.str.75, ptr noundef %4)
  br label %QuESTAssert.exit36

QuESTAssert.exit36:                               ; preds = %.lr.ph, %18
  %indvars.iv.next51 = add nuw nsw i64 %indvars.iv50, 1
  %exitcond54.not = icmp eq i64 %indvars.iv.next51, %wide.trip.count53
  br i1 %exitcond54.not, label %._crit_edge, label %.lr.ph

19:                                               ; preds = %QuESTAssert.exit34
  %20 = add nsw i32 %0, -1
  %21 = zext nneg i32 %20 to i64
  %22 = shl nuw i64 1, %21
  %23 = sub nsw i64 0, %22
  %24 = icmp sgt i32 %3, 0
  br i1 %24, label %.lr.ph47.preheader, label %._crit_edge

.lr.ph47.preheader:                               ; preds = %19
  %wide.trip.count = zext nneg i32 %3 to i64
  br label %.lr.ph47

.lr.ph47:                                         ; preds = %.lr.ph47.preheader, %QuESTAssert.exit38
  %indvars.iv = phi i64 [ 0, %.lr.ph47.preheader ], [ %indvars.iv.next, %QuESTAssert.exit38 ]
  %25 = getelementptr inbounds nuw i64, ptr %2, i64 %indvars.iv
  %26 = load i64, ptr %25, align 8, !tbaa !38
  %.not = icmp slt i64 %26, %23
  %27 = icmp sge i64 %26, %22
  %narrow.not = or i1 %.not, %27
  br i1 %narrow.not, label %28, label %QuESTAssert.exit38

28:                                               ; preds = %.lr.ph47
  tail call void @invalidQuESTInputError(ptr noundef nonnull @.str.76, ptr noundef %4)
  br label %QuESTAssert.exit38

QuESTAssert.exit38:                               ; preds = %.lr.ph47, %28
  %indvars.iv.next = add nuw nsw i64 %indvars.iv, 1
  %exitcond.not = icmp eq i64 %indvars.iv.next, %wide.trip.count
  br i1 %exitcond.not, label %._crit_edge, label %.lr.ph47

._crit_edge:                                      ; preds = %QuESTAssert.exit38, %QuESTAssert.exit36, %19, %10, %QuESTAssert.exit34
  ret void
}